target datalayout = "e-m:e-p270:32:32-p271:32:32-p272:64:64-i64:64-i128:128-f80:128-n8:16:32:64-S128"
target triple = "x86_64-pc-linux-gnu"

%struct.Vec_Int_t_ = type { i32, i32, ptr }

; Function Attrs: inlinehint nounwind uwtable
define internal i32 @Vec_IntSize(ptr noundef %0) #2 {
  %2 = alloca ptr, align 8
  store ptr %0, ptr %2, align 8, !tbaa !8
  %3 = load ptr, ptr %2, align 8, !tbaa !8
  %4 = getelementptr inbounds nuw %struct.Vec_Int_t_, ptr %3, i32 0, i32 1
  %5 = load i32, ptr %4, align 4, !tbaa !34
  ret i32 %5
}

; Function Attrs: inlinehint nounwind uwtable
define internal i32 @Vec_IntEntry(ptr noundef %0, i32 noundef %1) #2 {
  %3 = alloca ptr, align 8
  %4 = alloca i32, align 4
  store ptr %0, ptr %3, align 8, !tbaa !8
  store i32 %1, ptr %4, align 4, !tbaa !10
  %5 = load ptr, ptr %3, align 8, !tbaa !8
  %6 = getelementptr inbounds nuw %struct.Vec_Int_t_, ptr %5, i32 0, i32 2
  %7 = load ptr, ptr %6, align 8, !tbaa !36
  %8 = load i32, ptr %4, align 4, !tbaa !10
  %9 = sext i32 %8 to i64
  %10 = getelementptr inbounds i32, ptr %7, i64 %9
  %11 = load i32, ptr %10, align 4, !tbaa !10
  ret i32 %11
}

; Function Attrs: nounwind uwtable
define i32 @Gia_Iso2ManCheckIsoClassOneSkip(ptr noundef %0, ptr noundef %1, ptr noundef %2, ptr noundef %3, ptr noundef %4, ptr noundef %5, ptr noundef %6) #0 {
  %8 = alloca i32, align 4
  %9 = alloca ptr, align 8
  %10 = alloca ptr, align 8
  %11 = alloca ptr, align 8
  %12 = alloca ptr, align 8
  %13 = alloca ptr, align 8
  %14 = alloca ptr, align 8
  %15 = alloca ptr, align 8
  %16 = alloca i32, align 4
  %17 = alloca i32, align 4
  %18 = alloca i32, align 4
  store ptr %0, ptr %9, align 8, !tbaa !3
  store ptr %1, ptr %10, align 8, !tbaa !8
  store ptr %2, ptr %11, align 8, !tbaa !8
  store ptr %3, ptr %12, align 8, !tbaa !8
  store ptr %4, ptr %13, align 8, !tbaa !8
  store ptr %5, ptr %14, align 8, !tbaa !8
  store ptr %6, ptr %15, align 8, !tbaa !8
  call void @llvm.lifetime.start.p0(i64 4, ptr %16) #12
  call void @llvm.lifetime.start.p0(i64 4, ptr %17) #12
  %19 = load ptr, ptr %10, align 8, !tbaa !8
  %20 = call i32 @Vec_IntEntry(ptr noundef %19, i32 noundef 0)
  store i32 %20, ptr %17, align 4, !tbaa !10
  %21 = load ptr, ptr %9, align 8, !tbaa !3
  %22 = load ptr, ptr %11, align 8, !tbaa !8
  %23 = load ptr, ptr %12, align 8, !tbaa !8
  %24 = load ptr, ptr %14, align 8, !tbaa !8
  call void @Gia_Iso2ManCollectOrder(ptr noundef %21, ptr noundef %17, i32 noundef 1, ptr noundef %22, ptr noundef %23, ptr noundef %24)
  store i32 1, ptr %16, align 4, !tbaa !10
  br label %25

25:                                               ; preds = %57, %7
  %26 = load i32, ptr %16, align 4, !tbaa !10
  %27 = load ptr, ptr %10, align 8, !tbaa !8
  %28 = call i32 @Vec_IntSize(ptr noundef %27)
  %29 = icmp slt i32 %26, %28
  br i1 %29, label %30, label %34

30:                                               ; preds = %25
  %31 = load ptr, ptr %10, align 8, !tbaa !8
  %32 = load i32, ptr %16, align 4, !tbaa !10
  %33 = call i32 @Vec_IntEntry(ptr noundef %31, i32 noundef %32)
  store i32 %33, ptr %17, align 4, !tbaa !10
  br label %34

34:                                               ; preds = %30, %25
  %35 = phi i1 [ false, %25 ], [ true, %30 ]
  br i1 %35, label %36, label %60

36:                                               ; preds = %34
  %37 = load ptr, ptr %9, align 8, !tbaa !3
  %38 = load ptr, ptr %11, align 8, !tbaa !8
  %39 = load ptr, ptr %13, align 8, !tbaa !8
  %40 = load ptr, ptr %15, align 8, !tbaa !8
  call void @Gia_Iso2ManCollectOrder(ptr noundef %37, ptr noundef %17, i32 noundef 1, ptr noundef %38, ptr noundef %39, ptr noundef %40)
  %41 = load ptr, ptr %12, align 8, !tbaa !8
  %42 = call i32 @Vec_IntSize(ptr noundef %41)
  %43 = load ptr, ptr %13, align 8, !tbaa !8
  %44 = call i32 @Vec_IntSize(ptr noundef %43)
  %45 = icmp ne i32 %42, %44
  br i1 %45, label %46, label %47

46:                                               ; preds = %36
  store i32 0, ptr %8, align 4
  store i32 1, ptr %18, align 4
  br label %61

47:                                               ; preds = %36
  %48 = load ptr, ptr %9, align 8, !tbaa !3
  %49 = load ptr, ptr %12, align 8, !tbaa !8
  %50 = load ptr, ptr %13, align 8, !tbaa !8
  %51 = load ptr, ptr %14, align 8, !tbaa !8
  %52 = load ptr, ptr %15, align 8, !tbaa !8
  %53 = call i32 @Gia_Iso2ManCheckIsoPair(ptr noundef %48, ptr noundef %49, ptr noundef %50, ptr noundef %51, ptr noundef %52)
  %54 = icmp ne i32 %53, 0
  br i1 %54, label %56, label %55

55:                                               ; preds = %47
  store i32 0, ptr %8, align 4
  store i32 1, ptr %18, align 4
  br label %61

56:                                               ; preds = %47
  br label %57

57:                                               ; preds = %56
  %58 = load i32, ptr %16, align 4, !tbaa !10
  %59 = add nsw i32 %58, 1
  store i32 %59, ptr %16, align 4, !tbaa !10
  br label %25, !llvm.loop !97

60:                                               ; preds = %34
  store i32 1, ptr %8, align 4
  store i32 1, ptr %18, align 4
  br label %61

61:                                               ; preds = %60, %55, %46
  call void @llvm.lifetime.end.p0(i64 4, ptr %17) #12
  call void @llvm.lifetime.end.p0(i64 4, ptr %16) #12
  %62 = load i32, ptr %8, align 4
  ret i32 %62
}