; Function Attrs: nounwind uwtable
define range(i32 0, 2) i32 @Gia_Iso2ManCheckIsoClassOneSkip(ptr noundef %0, ptr noundef readonly captures(none) %1, ptr noundef initializes((4, 8)) %2, ptr noundef %3, ptr noundef %4, ptr noundef %5, ptr noundef %6) local_unnamed_addr #0 {
  %8 = alloca i32, align 4
  call void @llvm.lifetime.start.p0(i64 4, ptr nonnull %8) #26
  %9 = getelementptr i8, ptr %1, i64 8
  %.val26 = load ptr, ptr %9, align 8, !tbaa !32
  %10 = load i32, ptr %.val26, align 4, !tbaa !34
  store i32 %10, ptr %8, align 4, !tbaa !34
  call void @Gia_Iso2ManCollectOrder(ptr noundef %0, ptr noundef nonnull %8, i32 noundef 1, ptr noundef %2, ptr noundef %3, ptr noundef %5)
  %11 = getelementptr i8, ptr %1, i64 4
  %.val2427 = load i32, ptr %11, align 4, !tbaa !28
  %12 = icmp sgt i32 %.val2427, 1
  br i1 %12, label %.lr.ph, label %.critedge

.lr.ph:                                           ; preds = %7
  %13 = getelementptr i8, ptr %3, i64 4
  %14 = getelementptr i8, ptr %4, i64 4
  br label %18

15:                                               ; preds = %21
  %indvars.iv.next = add nuw nsw i64 %indvars.iv, 1
  %.val24 = load i32, ptr %11, align 4, !tbaa !28
  %16 = sext i32 %.val24 to i64
  %17 = icmp slt i64 %indvars.iv.next, %16
  br i1 %17, label %18, label %.critedge, !llvm.loop !106

18:                                               ; preds = %.lr.ph, %15
  %indvars.iv = phi i64 [ 1, %.lr.ph ], [ %indvars.iv.next, %15 ]
  %.val25 = load ptr, ptr %9, align 8, !tbaa !32
  %19 = getelementptr inbounds nuw i32, ptr %.val25, i64 %indvars.iv
  %20 = load i32, ptr %19, align 4, !tbaa !34
  store i32 %20, ptr %8, align 4, !tbaa !34
  call void @Gia_Iso2ManCollectOrder(ptr noundef %0, ptr noundef nonnull %8, i32 noundef 1, ptr noundef %2, ptr noundef %4, ptr noundef %6)
  %.val23 = load i32, ptr %13, align 4, !tbaa !28
  %.val = load i32, ptr %14, align 4, !tbaa !28
  %.not = icmp eq i32 %.val23, %.val
  br i1 %.not, label %21, label %.critedge

21:                                               ; preds = %18
  %22 = tail call i32 @Gia_Iso2ManCheckIsoPair(ptr noundef %0, ptr noundef nonnull %3, ptr noundef nonnull %4, ptr noundef %5, ptr noundef %6)
  %.not22 = icmp eq i32 %22, 0
  br i1 %.not22, label %.critedge, label %15

.critedge:                                        ; preds = %18, %21, %15, %7
  %.021 = phi i32 [ 1, %7 ], [ 1, %15 ], [ 0, %21 ], [ 0, %18 ]
  call void @llvm.lifetime.end.p0(i64 4, ptr nonnull %8) #26
  ret i32 %.021
}